; Function Attrs: mustprogress uwtable
define internal void @_ZNK9grpc_core11json_detail10AutoLoaderINS_12_GLOBAL__N_115PickFirstConfigEE8LoadIntoERKNS_12experimental4JsonERKNS_8JsonArgsEPvPNS_16ValidationErrorsE(ptr nonnull readnone align 8 captures(none) %0, ptr noundef nonnull align 8 dereferenceable(56) %1, ptr noundef nonnull align 8 dereferenceable(8) %2, ptr noundef %3, ptr noundef %4) unnamed_addr #4 align 2 personality ptr @__gxx_personality_v0 {
  %6 = load atomic i8, ptr @_ZGVZN9grpc_core12_GLOBAL__N_115PickFirstConfig10JsonLoaderERKNS_8JsonArgsEE11kJsonLoader acquire, align 8
  %7 = icmp eq i8 %6, 0
  br i1 %7, label %8, label %_ZN9grpc_core12_GLOBAL__N_115PickFirstConfig10JsonLoaderERKNS_8JsonArgsE.exit, !prof !17

8:                                                ; preds = %5
  %9 = tail call i32 @__cxa_guard_acquire(ptr nonnull @_ZGVZN9grpc_core12_GLOBAL__N_115PickFirstConfig10JsonLoaderERKNS_8JsonArgsEE11kJsonLoader) #37
  %.not.i = icmp eq i32 %9, 0
  br i1 %.not.i, label %_ZN9grpc_core12_GLOBAL__N_115PickFirstConfig10JsonLoaderERKNS_8JsonArgsE.exit, label %10

10:                                               ; preds = %8
  %11 = invoke noalias noundef nonnull dereferenceable(40) ptr @_Znwm(i64 noundef 40) #36
          to label %12 unwind label %15

12:                                               ; preds = %10
  store ptr getelementptr inbounds nuw inrange(-16, 8) (i8, ptr @_ZTVN9grpc_core11json_detail24FinishedJsonObjectLoaderINS_12_GLOBAL__N_115PickFirstConfigELm1EvEE, i64 16), ptr %11, align 8, !tbaa !6
  %13 = getelementptr inbounds nuw i8, ptr %11, i64 8
  store ptr @_ZN9grpc_core19NoDestructSingletonINS_11json_detail10AutoLoaderIbEEE6value_E, ptr %13, align 8
  %.sroa.5.0..sroa_idx.i = getelementptr inbounds nuw i8, ptr %11, i64 16
  store i16 16, ptr %.sroa.5.0..sroa_idx.i, align 8
  %.sroa.6.0..sroa_idx.i = getelementptr inbounds nuw i8, ptr %11, i64 18
  store i8 1, ptr %.sroa.6.0..sroa_idx.i, align 2
  %.sroa.72.0..sroa_idx.i = getelementptr inbounds nuw i8, ptr %11, i64 24
  store ptr @.str.18, ptr %.sroa.72.0..sroa_idx.i, align 8
  %.sroa.8.0..sroa_idx.i = getelementptr inbounds nuw i8, ptr %11, i64 32
  store ptr null, ptr %.sroa.8.0..sroa_idx.i, align 8, !tbaa !24
  store ptr %11, ptr @_ZZN9grpc_core12_GLOBAL__N_115PickFirstConfig10JsonLoaderERKNS_8JsonArgsEE11kJsonLoader, align 8, !tbaa !25
  %14 = tail call ptr @llvm.invariant.start.p0(i64 8, ptr nonnull @_ZZN9grpc_core12_GLOBAL__N_115PickFirstConfig10JsonLoaderERKNS_8JsonArgsEE11kJsonLoader)
  tail call void @__cxa_guard_release(ptr nonnull @_ZGVZN9grpc_core12_GLOBAL__N_115PickFirstConfig10JsonLoaderERKNS_8JsonArgsEE11kJsonLoader) #37
  br label %_ZN9grpc_core12_GLOBAL__N_115PickFirstConfig10JsonLoaderERKNS_8JsonArgsE.exit

15:                                               ; preds = %10
  %16 = landingpad { ptr, i32 }
          cleanup
  tail call void @__cxa_guard_abort(ptr nonnull @_ZGVZN9grpc_core12_GLOBAL__N_115PickFirstConfig10JsonLoaderERKNS_8JsonArgsEE11kJsonLoader) #37
  resume { ptr, i32 } %16

_ZN9grpc_core12_GLOBAL__N_115PickFirstConfig10JsonLoaderERKNS_8JsonArgsE.exit: ; preds = %5, %8, %12
  %17 = load ptr, ptr @_ZZN9grpc_core12_GLOBAL__N_115PickFirstConfig10JsonLoaderERKNS_8JsonArgsEE11kJsonLoader, align 8, !tbaa !25
  %18 = load ptr, ptr %17, align 8, !tbaa !6
  %19 = load ptr, ptr %18, align 8
  tail call void %19(ptr noundef nonnull align 8 dereferenceable(8) %17, ptr noundef nonnull align 8 dereferenceable(56) %1, ptr noundef nonnull align 8 dereferenceable(8) %2, ptr noundef %3, ptr noundef %4)
  ret void
}